; Function Attrs: nounwind uwtable
define dso_local noundef ptr @psqlscan_prepare_buffer(ptr noundef readonly captures(none) %0, ptr noundef %1, i32 noundef %2, ptr noundef writeonly captures(none) initializes((0, 8)) %3) local_unnamed_addr #0 {
  %5 = add i32 %2, 2
  %6 = sext i32 %5 to i64
  %7 = tail call ptr @pg_malloc(i64 noundef %6) #27
  store ptr %7, ptr %3, align 8
  %8 = add i32 %2, 1
  %9 = sext i32 %8 to i64
  %10 = getelementptr inbounds i8, ptr %7, i64 %9
  store i8 0, ptr %10, align 1
  %11 = sext i32 %2 to i64
  %12 = getelementptr inbounds i8, ptr %7, i64 %11
  store i8 0, ptr %12, align 1
  %13 = getelementptr inbounds nuw i8, ptr %0, i64 52
  %14 = load i8, ptr %13, align 4, !range !6, !noundef !7
  %15 = trunc nuw i8 %14 to i1
  br i1 %15, label %19, label %.preheader

.preheader:                                       ; preds = %4
  %16 = icmp sgt i32 %2, 0
  br i1 %16, label %.lr.ph35, label %.loopexit31

.lr.ph35:                                         ; preds = %.preheader
  %17 = getelementptr inbounds nuw i8, ptr %0, i64 48
  %18 = add nsw i32 %2, -2
  br label %22

19:                                               ; preds = %4
  tail call void @llvm.memcpy.p0.p0.i64(ptr nonnull align 1 %7, ptr align 1 %1, i64 %11, i1 false)
  br label %.loopexit31

.loopexit.loopexit:                               ; preds = %.lr.ph
  %20 = trunc nsw i64 %indvars.iv.next to i32
  br label %.loopexit

.loopexit:                                        ; preds = %.loopexit.loopexit, %22
  %.1.lcssa = phi i32 [ %.132, %22 ], [ %20, %.loopexit.loopexit ]
  %21 = icmp slt i32 %.1.lcssa, %2
  br i1 %21, label %22, label %.loopexit31, !llvm.loop !19

22:                                               ; preds = %.lr.ph35, %.loopexit
  %.02834 = phi i32 [ 0, %.lr.ph35 ], [ %.1.lcssa, %.loopexit ]
  %23 = sext i32 %.02834 to i64
  %24 = getelementptr inbounds i8, ptr %1, i64 %23
  %25 = load i32, ptr %17, align 8
  %26 = tail call i32 @PQmblen(ptr noundef %24, i32 noundef %25) #27
  %27 = load i8, ptr %24, align 1
  %28 = getelementptr inbounds i8, ptr %7, i64 %23
  store i8 %27, ptr %28, align 1
  %.132 = add nsw i32 %.02834, 1
  %29 = add i32 %26, -1
  %30 = icmp sgt i32 %29, 0
  %31 = icmp slt i32 %.132, %2
  %32 = and i1 %30, %31
  br i1 %32, label %.lr.ph.preheader, label %.loopexit

.lr.ph.preheader:                                 ; preds = %22
  %33 = sext i32 %.132 to i64
  %scevgep = getelementptr i8, ptr %7, i64 %33
  %34 = sub i32 %18, %.02834
  %35 = add i32 %26, -2
  %36 = tail call i32 @llvm.umin.i32(i32 %34, i32 %35)
  %umin = zext nneg i32 %36 to i64
  %37 = add nuw nsw i64 %umin, 1
  tail call void @llvm.memset.p0.i64(ptr noundef nonnull align 1 dereferenceable(1) %scevgep, i8 -1, i64 %37, i1 false)
  br label %.lr.ph

.lr.ph:                                           ; preds = %.lr.ph.preheader, %.lr.ph
  %indvars.iv = phi i64 [ %33, %.lr.ph.preheader ], [ %indvars.iv.next, %.lr.ph ]
  %38 = phi i32 [ %29, %.lr.ph.preheader ], [ %39, %.lr.ph ]
  %indvars.iv.next = add nsw i64 %indvars.iv, 1
  %39 = add nsw i32 %38, -1
  %40 = icmp samesign ugt i32 %38, 1
  %41 = icmp slt i64 %indvars.iv.next, %11
  %42 = select i1 %40, i1 %41, i1 false
  br i1 %42, label %.lr.ph, label %.loopexit.loopexit, !llvm.loop !20

.loopexit31:                                      ; preds = %.loopexit, %.preheader, %19
  %43 = load ptr, ptr %0, align 8
  %44 = icmp ugt i32 %2, -3
  br i1 %44, label %psql_yy_scan_buffer.exit, label %45

45:                                               ; preds = %.loopexit31
  %46 = add nsw i64 %6, -2
  %47 = getelementptr inbounds nuw i8, ptr %7, i64 %46
  %48 = load i8, ptr %47, align 1
  %.not.i = icmp eq i8 %48, 0
  br i1 %.not.i, label %49, label %psql_yy_scan_buffer.exit

49:                                               ; preds = %45
  %50 = getelementptr i8, ptr %7, i64 %6
  %51 = getelementptr i8, ptr %50, i64 -1
  %52 = load i8, ptr %51, align 1
  %.not26.i = icmp eq i8 %52, 0
  br i1 %.not26.i, label %53, label %psql_yy_scan_buffer.exit

53:                                               ; preds = %49
  %54 = tail call noalias noundef dereferenceable_or_null(64) ptr @malloc(i64 noundef 64) #24
  %.not27.i = icmp eq ptr %54, null
  br i1 %.not27.i, label %55, label %56

55:                                               ; preds = %53
  tail call fastcc void @yy_fatal_error(ptr noundef nonnull @.str.14) #25
  unreachable

56:                                               ; preds = %53
  %57 = trunc i64 %46 to i32
  %58 = getelementptr inbounds nuw i8, ptr %54, i64 24
  store i32 %57, ptr %58, align 8
  %59 = getelementptr inbounds nuw i8, ptr %54, i64 8
  store ptr %7, ptr %59, align 8
  %60 = getelementptr inbounds nuw i8, ptr %54, i64 16
  store ptr %7, ptr %60, align 8
  %61 = getelementptr inbounds nuw i8, ptr %54, i64 32
  store i32 0, ptr %61, align 8
  store ptr null, ptr %54, align 8
  %62 = getelementptr inbounds nuw i8, ptr %54, i64 28
  store i32 %57, ptr %62, align 4
  %63 = getelementptr inbounds nuw i8, ptr %54, i64 36
  store i32 0, ptr %63, align 4
  %64 = getelementptr inbounds nuw i8, ptr %54, i64 40
  store i32 1, ptr %64, align 8
  %65 = getelementptr inbounds nuw i8, ptr %54, i64 52
  store i32 0, ptr %65, align 4
  %66 = getelementptr inbounds nuw i8, ptr %54, i64 56
  store i32 0, ptr %66, align 8
  tail call void @psql_yy_switch_to_buffer(ptr noundef nonnull %54, ptr noundef %43)
  br label %psql_yy_scan_buffer.exit

psql_yy_scan_buffer.exit:                         ; preds = %.loopexit31, %45, %49, %56
  %.0.i = phi ptr [ %54, %56 ], [ null, %49 ], [ null, %45 ], [ null, %.loopexit31 ]
  ret ptr %.0.i
}